; Function Attrs: mustprogress uwtable
define noundef zeroext i1 @_ZN7rocksdb12ParseBooleanERKNSt7__cxx1112basic_stringIcSt11char_traitsIcESaIcEEES7_(ptr noundef nonnull align 8 dereferenceable(32) %0, ptr noundef nonnull align 8 dereferenceable(32) %1) local_unnamed_addr #3 personality ptr @__gxx_personality_v0 {
  %3 = tail call noundef i32 @_ZNKSt7__cxx1112basic_stringIcSt11char_traitsIcESaIcEE7compareEPKc(ptr noundef nonnull align 8 dereferenceable(32) %1, ptr noundef nonnull @.str.23) #26
  %4 = icmp eq i32 %3, 0
  br i1 %4, label %19, label %5

5:                                                ; preds = %2
  %6 = tail call noundef i32 @_ZNKSt7__cxx1112basic_stringIcSt11char_traitsIcESaIcEE7compareEPKc(ptr noundef nonnull align 8 dereferenceable(32) %1, ptr noundef nonnull @.str.24) #26
  %7 = icmp eq i32 %6, 0
  br i1 %7, label %19, label %8

8:                                                ; preds = %5
  %9 = tail call noundef i32 @_ZNKSt7__cxx1112basic_stringIcSt11char_traitsIcESaIcEE7compareEPKc(ptr noundef nonnull align 8 dereferenceable(32) %1, ptr noundef nonnull @.str.25) #26
  %10 = icmp eq i32 %9, 0
  br i1 %10, label %19, label %11

11:                                               ; preds = %8
  %12 = tail call noundef i32 @_ZNKSt7__cxx1112basic_stringIcSt11char_traitsIcESaIcEE7compareEPKc(ptr noundef nonnull align 8 dereferenceable(32) %1, ptr noundef nonnull @.str.26) #26
  %13 = icmp eq i32 %12, 0
  br i1 %13, label %19, label %14

14:                                               ; preds = %11
  %15 = tail call ptr @__cxa_allocate_exception(i64 16) #26
  invoke void @_ZNSt16invalid_argumentC1ERKNSt7__cxx1112basic_stringIcSt11char_traitsIcESaIcEEE(ptr noundef nonnull align 8 dereferenceable(16) %15, ptr noundef nonnull align 8 dereferenceable(32) %0)
          to label %16 unwind label %17

16:                                               ; preds = %14
  tail call void @__cxa_throw(ptr nonnull %15, ptr nonnull @_ZTISt16invalid_argument, ptr nonnull @_ZNSt16invalid_argumentD1Ev) #28
  unreachable

17:                                               ; preds = %14
  %18 = landingpad { ptr, i32 }
          cleanup
  tail call void @__cxa_free_exception(ptr nonnull %15) #26
  resume { ptr, i32 } %18

19:                                               ; preds = %8, %11, %2, %5
  %.0 = phi i1 [ true, %5 ], [ true, %2 ], [ false, %11 ], [ false, %8 ]
  ret i1 %.0
}